; Function Attrs: nounwind uwtable
define ptr @l_Lean_Server_CancellableT_checkCancelled___rarg___lambda__2___boxed(ptr noundef %0, ptr noundef %1) #0 {
  %3 = ptrtoint ptr %1 to i64
  %4 = and i64 %3, 1
  %.not = icmp eq i64 %4, 0
  br i1 %.not, label %5, label %lean_dec.exit

5:                                                ; preds = %2
  %6 = load i32, ptr %1, align 4, !tbaa !8
  %7 = icmp sgt i32 %6, 1
  br i1 %7, label %8, label %10, !prof !11

8:                                                ; preds = %5
  %9 = add nsw i32 %6, -1
  store i32 %9, ptr %1, align 4, !tbaa !8
  br label %lean_dec.exit

10:                                               ; preds = %5
  %.not.i = icmp eq i32 %6, 0
  br i1 %.not.i, label %lean_dec.exit, label %11

11:                                               ; preds = %10
  tail call void @lean_dec_ref_cold(ptr noundef nonnull %1) #5
  br label %lean_dec.exit

lean_dec.exit:                                    ; preds = %11, %10, %8, %2
  %12 = and i64 %3, 510
  %13 = icmp eq i64 %12, 0
  %l_Lean_Server_CancellableT_checkCancelled___rarg___lambda__2___closed__1.val.i = load ptr, ptr @l_Lean_Server_CancellableT_checkCancelled___rarg___lambda__2___closed__1, align 8
  %l_Lean_Server_CancellableT_checkCancelled___rarg___lambda__2___closed__2.val.i = load ptr, ptr @l_Lean_Server_CancellableT_checkCancelled___rarg___lambda__2___closed__2, align 8
  %14 = select i1 %13, ptr %l_Lean_Server_CancellableT_checkCancelled___rarg___lambda__2___closed__1.val.i, ptr %l_Lean_Server_CancellableT_checkCancelled___rarg___lambda__2___closed__2.val.i
  %15 = tail call ptr @lean_apply_2(ptr noundef %0, ptr noundef nonnull inttoptr (i64 1 to ptr), ptr noundef %14) #5
  ret ptr %15
}